target datalayout = "e-m:e-p270:32:32-p271:32:32-p272:64:64-i64:64-i128:128-f80:128-n8:16:32:64-S128"
target triple = "x86_64-pc-linux-gnu"

; Function Attrs: mustprogress nounwind uwtable
define noundef float @_Z9calc_tempff(float noundef %0, float noundef %1) #3 {
  %3 = alloca float, align 4
  %4 = alloca float, align 4
  %5 = alloca float, align 4
  store float %0, ptr %4, align 4, !tbaa !118
  store float %1, ptr %5, align 4, !tbaa !118
  %6 = load float, ptr %5, align 4, !tbaa !118
  %7 = fcmp ogt float %6, 0.000000e+00
  br i1 %7, label %8, label %17

8:                                                ; preds = %2
  %9 = load float, ptr %4, align 4, !tbaa !118
  %10 = fpext float %9 to double
  %11 = fmul double 2.000000e+00, %10
  %12 = load float, ptr %5, align 4, !tbaa !118
  %13 = fpext float %12 to double
  %14 = fmul double %13, 0x3F81072C483AF26D
  %15 = fdiv double %11, %14
  %16 = fptrunc double %15 to float
  store float %16, ptr %3, align 4
  br label %18

17:                                               ; preds = %2
  store float 0.000000e+00, ptr %3, align 4
  br label %18

18:                                               ; preds = %17, %8
  %19 = load float, ptr %3, align 4
  ret float %19
}