; Function Attrs: mustprogress nofree norecurse nosync nounwind willreturn memory(none) uwtable
define noundef float @_Z9calc_tempff(float noundef %0, float noundef %1) local_unnamed_addr #14 {
  %3 = fcmp ogt float %1, 0.000000e+00
  br i1 %3, label %4, label %11

4:                                                ; preds = %2
  %5 = fpext float %0 to double
  %6 = fmul double %5, 2.000000e+00
  %7 = fpext float %1 to double
  %8 = fmul double %7, 0x3F81072C483AF26D
  %9 = fdiv double %6, %8
  %10 = fptrunc double %9 to float
  br label %11

11:                                               ; preds = %2, %4
  %.0 = phi float [ %10, %4 ], [ 0.000000e+00, %2 ]
  ret float %.0
}